target datalayout = "e-m:e-p270:32:32-p271:32:32-p272:64:64-i64:64-i128:128-f80:128-n8:16:32:64-S128"
target triple = "x86_64-unknown-linux-gnu"

%"struct.YAML::Scanner::SimpleKey" = type { %"struct.YAML::Mark", i64, ptr, ptr, ptr }
%"struct.YAML::Mark" = type { i32, i32, i32 }
%"class.YAML::Scanner" = type { %"class.YAML::Stream", %"class.std::queue", i8, i8, i8, i8, %"class.std::stack", %"class.std::stack.15", %"class.YAML::ptr_vector", %"class.std::stack.27" }
%"class.YAML::Stream" = type { ptr, %"struct.YAML::Mark", i32, %"class.std::deque", ptr, i64, i64 }
%"class.std::deque" = type { %"class.std::_Deque_base" }
%"class.std::_Deque_base" = type { %"struct.std::_Deque_base<char, std::allocator<char>>::_Deque_impl" }
%"struct.std::_Deque_base<char, std::allocator<char>>::_Deque_impl" = type { %"struct.std::_Deque_base<char, std::allocator<char>>::_Deque_impl_data" }
%"struct.std::_Deque_base<char, std::allocator<char>>::_Deque_impl_data" = type { ptr, i64, %"struct.std::_Deque_iterator", %"struct.std::_Deque_iterator" }
%"struct.std::_Deque_iterator" = type { ptr, ptr, ptr, ptr }
%"class.std::queue" = type { %"class.std::deque.3" }
%"class.std::deque.3" = type { %"class.std::_Deque_base.4" }
%"class.std::_Deque_base.4" = type { %"struct.std::_Deque_base<YAML::Token, std::allocator<YAML::Token>>::_Deque_impl" }
%"struct.std::_Deque_base<YAML::Token, std::allocator<YAML::Token>>::_Deque_impl" = type { %"struct.std::_Deque_base<YAML::Token, std::allocator<YAML::Token>>::_Deque_impl_data" }
%"struct.std::_Deque_base<YAML::Token, std::allocator<YAML::Token>>::_Deque_impl_data" = type { ptr, i64, %"struct.std::_Deque_iterator.8", %"struct.std::_Deque_iterator.8" }
%"struct.std::_Deque_iterator.8" = type { ptr, ptr, ptr, ptr }
%"class.std::stack" = type { %"class.std::deque.9" }
%"class.std::deque.9" = type { %"class.std::_Deque_base.10" }
%"class.std::_Deque_base.10" = type { %"struct.std::_Deque_base<YAML::Scanner::SimpleKey, std::allocator<YAML::Scanner::SimpleKey>>::_Deque_impl" }
%"struct.std::_Deque_base<YAML::Scanner::SimpleKey, std::allocator<YAML::Scanner::SimpleKey>>::_Deque_impl" = type { %"struct.std::_Deque_base<YAML::Scanner::SimpleKey, std::allocator<YAML::Scanner::SimpleKey>>::_Deque_impl_data" }
%"struct.std::_Deque_base<YAML::Scanner::SimpleKey, std::allocator<YAML::Scanner::SimpleKey>>::_Deque_impl_data" = type { ptr, i64, %"struct.std::_Deque_iterator.14", %"struct.std::_Deque_iterator.14" }
%"struct.std::_Deque_iterator.14" = type { ptr, ptr, ptr, ptr }
%"class.std::stack.15" = type { %"class.std::deque.16" }
%"class.std::deque.16" = type { %"class.std::_Deque_base.17" }
%"class.std::_Deque_base.17" = type { %"struct.std::_Deque_base<YAML::Scanner::IndentMarker *, std::allocator<YAML::Scanner::IndentMarker *>>::_Deque_impl" }
%"struct.std::_Deque_base<YAML::Scanner::IndentMarker *, std::allocator<YAML::Scanner::IndentMarker *>>::_Deque_impl" = type { %"struct.std::_Deque_base<YAML::Scanner::IndentMarker *, std::allocator<YAML::Scanner::IndentMarker *>>::_Deque_impl_data" }
%"struct.std::_Deque_base<YAML::Scanner::IndentMarker *, std::allocator<YAML::Scanner::IndentMarker *>>::_Deque_impl_data" = type { ptr, i64, %"struct.std::_Deque_iterator.21", %"struct.std::_Deque_iterator.21" }
%"struct.std::_Deque_iterator.21" = type { ptr, ptr, ptr, ptr }
%"class.YAML::ptr_vector" = type { %"class.std::vector.22" }
%"class.std::vector.22" = type { %"struct.std::_Vector_base.23" }
%"struct.std::_Vector_base.23" = type { %"struct.std::_Vector_base<std::unique_ptr<YAML::Scanner::IndentMarker>, std::allocator<std::unique_ptr<YAML::Scanner::IndentMarker>>>::_Vector_impl" }
%"struct.std::_Vector_base<std::unique_ptr<YAML::Scanner::IndentMarker>, std::allocator<std::unique_ptr<YAML::Scanner::IndentMarker>>>::_Vector_impl" = type { %"struct.std::_Vector_base<std::unique_ptr<YAML::Scanner::IndentMarker>, std::allocator<std::unique_ptr<YAML::Scanner::IndentMarker>>>::_Vector_impl_data" }
%"struct.std::_Vector_base<std::unique_ptr<YAML::Scanner::IndentMarker>, std::allocator<std::unique_ptr<YAML::Scanner::IndentMarker>>>::_Vector_impl_data" = type { ptr, ptr, ptr }
%"class.std::stack.27" = type { %"class.std::deque.28" }
%"class.std::deque.28" = type { %"class.std::_Deque_base.29" }
%"class.std::_Deque_base.29" = type { %"struct.std::_Deque_base<YAML::Scanner::FLOW_MARKER, std::allocator<YAML::Scanner::FLOW_MARKER>>::_Deque_impl" }
%"struct.std::_Deque_base<YAML::Scanner::FLOW_MARKER, std::allocator<YAML::Scanner::FLOW_MARKER>>::_Deque_impl" = type { %"struct.std::_Deque_base<YAML::Scanner::FLOW_MARKER, std::allocator<YAML::Scanner::FLOW_MARKER>>::_Deque_impl_data" }
%"struct.std::_Deque_base<YAML::Scanner::FLOW_MARKER, std::allocator<YAML::Scanner::FLOW_MARKER>>::_Deque_impl_data" = type { ptr, i64, %"struct.std::_Deque_iterator.33", %"struct.std::_Deque_iterator.33" }
%"struct.std::_Deque_iterator.33" = type { ptr, ptr, ptr, ptr }

; Function Attrs: mustprogress nounwind uwtable
define linkonce_odr void @_ZNSt15__new_allocatorIN4YAML7Scanner9SimpleKeyEE10deallocateEPS2_m(ptr noundef nonnull align 1 dereferenceable(1) %this, ptr noundef %__p, i64 noundef %__n) #4 comdat align 2 {
entry:
  %this.addr = alloca ptr, align 8
  %__p.addr = alloca ptr, align 8
  %__n.addr = alloca i64, align 8
  store ptr %this, ptr %this.addr, align 8
  store ptr %__p, ptr %__p.addr, align 8
  store i64 %__n, ptr %__n.addr, align 8
  %0 = load ptr, ptr %__p.addr, align 8
  call void @_ZdlPv(ptr noundef %0) #13
  ret void
}

; Function Attrs: mustprogress nounwind uwtable
define linkonce_odr noundef i64 @_ZNSt15_Deque_iteratorIN4YAML7Scanner9SimpleKeyERS2_PS2_E14_S_buffer_sizeEv() #4 comdat align 2 {
entry:
  %call = call noundef i64 @_ZSt16__deque_buf_sizem(i64 noundef 48)
  ret i64 %call
}

; Function Attrs: mustprogress uwtable
define linkonce_odr void @_ZNSt16allocator_traitsISaIN4YAML7Scanner9SimpleKeyEEE10deallocateERS3_PS2_m(ptr noundef nonnull align 1 dereferenceable(1) %__a, ptr noundef %__p, i64 noundef %__n) #6 comdat align 2 {
entry:
  %__a.addr = alloca ptr, align 8
  %__p.addr = alloca ptr, align 8
  %__n.addr = alloca i64, align 8
  store ptr %__a, ptr %__a.addr, align 8
  store ptr %__p, ptr %__p.addr, align 8
  store i64 %__n, ptr %__n.addr, align 8
  %0 = load ptr, ptr %__a.addr, align 8
  %1 = load ptr, ptr %__p.addr, align 8
  %2 = load i64, ptr %__n.addr, align 8
  call void @_ZNSt15__new_allocatorIN4YAML7Scanner9SimpleKeyEE10deallocateEPS2_m(ptr noundef nonnull align 1 dereferenceable(1) %0, ptr noundef %1, i64 noundef %2)
  ret void
}

; Function Attrs: mustprogress nounwind uwtable
define linkonce_odr noundef i64 @_ZSt16__deque_buf_sizem(i64 noundef %__size) #4 comdat {
entry:
  %__size.addr = alloca i64, align 8
  store i64 %__size, ptr %__size.addr, align 8
  %0 = load i64, ptr %__size.addr, align 8
  %cmp = icmp ult i64 %0, 512
  br i1 %cmp, label %cond.true, label %cond.false

cond.true:                                        ; preds = %entry
  %1 = load i64, ptr %__size.addr, align 8
  %div = udiv i64 512, %1
  br label %cond.end

cond.false:                                       ; preds = %entry
  br label %cond.end

cond.end:                                         ; preds = %cond.false, %cond.true
  %cond = phi i64 [ %div, %cond.true ], [ 1, %cond.false ]
  ret i64 %cond
}

; Function Attrs: mustprogress nounwind uwtable
define linkonce_odr void @_ZNSt15_Deque_iteratorIN4YAML7Scanner9SimpleKeyERS2_PS2_E11_M_set_nodeEPS4_(ptr noundef nonnull align 8 dereferenceable(32) %this, ptr noundef %__new_node) #4 comdat align 2 {
entry:
  %this.addr = alloca ptr, align 8
  %__new_node.addr = alloca ptr, align 8
  store ptr %this, ptr %this.addr, align 8
  store ptr %__new_node, ptr %__new_node.addr, align 8
  %this1 = load ptr, ptr %this.addr, align 8
  %0 = load ptr, ptr %__new_node.addr, align 8
  %_M_node = getelementptr inbounds %"struct.std::_Deque_iterator.14", ptr %this1, i32 0, i32 3
  store ptr %0, ptr %_M_node, align 8
  %1 = load ptr, ptr %__new_node.addr, align 8
  %2 = load ptr, ptr %1, align 8
  %_M_first = getelementptr inbounds %"struct.std::_Deque_iterator.14", ptr %this1, i32 0, i32 1
  store ptr %2, ptr %_M_first, align 8
  %_M_first2 = getelementptr inbounds %"struct.std::_Deque_iterator.14", ptr %this1, i32 0, i32 1
  %3 = load ptr, ptr %_M_first2, align 8
  %call = call noundef i64 @_ZNSt15_Deque_iteratorIN4YAML7Scanner9SimpleKeyERS2_PS2_E14_S_buffer_sizeEv() #3
  %add.ptr = getelementptr inbounds %"struct.YAML::Scanner::SimpleKey", ptr %3, i64 %call
  %_M_last = getelementptr inbounds %"struct.std::_Deque_iterator.14", ptr %this1, i32 0, i32 2
  store ptr %add.ptr, ptr %_M_last, align 8
  ret void
}

; Function Attrs: mustprogress nounwind uwtable
define linkonce_odr void @_ZNSt11_Deque_baseIN4YAML7Scanner9SimpleKeyESaIS2_EE18_M_deallocate_nodeEPS2_(ptr noundef nonnull align 8 dereferenceable(80) %this, ptr noundef %__p) #4 comdat align 2 personality ptr @__gxx_personality_v0 {
entry:
  %this.addr = alloca ptr, align 8
  %__p.addr = alloca ptr, align 8
  store ptr %this, ptr %this.addr, align 8
  store ptr %__p, ptr %__p.addr, align 8
  %this1 = load ptr, ptr %this.addr, align 8
  %_M_impl = getelementptr inbounds %"class.std::_Deque_base.10", ptr %this1, i32 0, i32 0
  %0 = load ptr, ptr %__p.addr, align 8
  %call = call noundef i64 @_ZSt16__deque_buf_sizem(i64 noundef 48)
  invoke void @_ZNSt16allocator_traitsISaIN4YAML7Scanner9SimpleKeyEEE10deallocateERS3_PS2_m(ptr noundef nonnull align 1 dereferenceable(1) %_M_impl, ptr noundef %0, i64 noundef %call)
          to label %invoke.cont unwind label %terminate.lpad

invoke.cont:                                      ; preds = %entry
  ret void

terminate.lpad:                                   ; preds = %entry
  %1 = landingpad { ptr, i32 }
          catch ptr null
  %2 = extractvalue { ptr, i32 } %1, 0
  call void @__clang_call_terminate(ptr %2) #12
  unreachable
}

; Function Attrs: mustprogress nounwind uwtable
define linkonce_odr void @_ZNSt15__new_allocatorIN4YAML7Scanner9SimpleKeyEE7destroyIS2_EEvPT_(ptr noundef nonnull align 1 dereferenceable(1) %this, ptr noundef %__p) #4 comdat align 2 {
entry:
  %this.addr = alloca ptr, align 8
  %__p.addr = alloca ptr, align 8
  store ptr %this, ptr %this.addr, align 8
  store ptr %__p, ptr %__p.addr, align 8
  ret void
}

; Function Attrs: noreturn nounwind uwtable
define linkonce_odr hidden void @__clang_call_terminate(ptr noundef %0) #7 comdat {
  %2 = call ptr @__cxa_begin_catch(ptr %0) #3
  call void @_ZSt9terminatev() #12
  unreachable
}

; Function Attrs: mustprogress nounwind uwtable
define linkonce_odr void @_ZNSt5dequeIN4YAML7Scanner9SimpleKeyESaIS2_EE15_M_pop_back_auxEv(ptr noundef nonnull align 8 dereferenceable(80) %this) #4 comdat align 2 {
entry:
  %this.addr = alloca ptr, align 8
  store ptr %this, ptr %this.addr, align 8
  %this1 = load ptr, ptr %this.addr, align 8
  %_M_impl = getelementptr inbounds %"class.std::_Deque_base.10", ptr %this1, i32 0, i32 0
  %_M_finish = getelementptr inbounds %"struct.std::_Deque_base<YAML::Scanner::SimpleKey, std::allocator<YAML::Scanner::SimpleKey>>::_Deque_impl_data", ptr %_M_impl, i32 0, i32 3
  %_M_first = getelementptr inbounds %"struct.std::_Deque_iterator.14", ptr %_M_finish, i32 0, i32 1
  %0 = load ptr, ptr %_M_first, align 8
  call void @_ZNSt11_Deque_baseIN4YAML7Scanner9SimpleKeyESaIS2_EE18_M_deallocate_nodeEPS2_(ptr noundef nonnull align 8 dereferenceable(80) %this1, ptr noundef %0) #3
  %_M_impl2 = getelementptr inbounds %"class.std::_Deque_base.10", ptr %this1, i32 0, i32 0
  %_M_finish3 = getelementptr inbounds %"struct.std::_Deque_base<YAML::Scanner::SimpleKey, std::allocator<YAML::Scanner::SimpleKey>>::_Deque_impl_data", ptr %_M_impl2, i32 0, i32 3
  %_M_impl4 = getelementptr inbounds %"class.std::_Deque_base.10", ptr %this1, i32 0, i32 0
  %_M_finish5 = getelementptr inbounds %"struct.std::_Deque_base<YAML::Scanner::SimpleKey, std::allocator<YAML::Scanner::SimpleKey>>::_Deque_impl_data", ptr %_M_impl4, i32 0, i32 3
  %_M_node = getelementptr inbounds %"struct.std::_Deque_iterator.14", ptr %_M_finish5, i32 0, i32 3
  %1 = load ptr, ptr %_M_node, align 8
  %add.ptr = getelementptr inbounds ptr, ptr %1, i64 -1
  call void @_ZNSt15_Deque_iteratorIN4YAML7Scanner9SimpleKeyERS2_PS2_E11_M_set_nodeEPS4_(ptr noundef nonnull align 8 dereferenceable(32) %_M_finish3, ptr noundef %add.ptr) #3
  %_M_impl6 = getelementptr inbounds %"class.std::_Deque_base.10", ptr %this1, i32 0, i32 0
  %_M_finish7 = getelementptr inbounds %"struct.std::_Deque_base<YAML::Scanner::SimpleKey, std::allocator<YAML::Scanner::SimpleKey>>::_Deque_impl_data", ptr %_M_impl6, i32 0, i32 3
  %_M_last = getelementptr inbounds %"struct.std::_Deque_iterator.14", ptr %_M_finish7, i32 0, i32 2
  %2 = load ptr, ptr %_M_last, align 8
  %add.ptr8 = getelementptr inbounds %"struct.YAML::Scanner::SimpleKey", ptr %2, i64 -1
  %_M_impl9 = getelementptr inbounds %"class.std::_Deque_base.10", ptr %this1, i32 0, i32 0
  %_M_finish10 = getelementptr inbounds %"struct.std::_Deque_base<YAML::Scanner::SimpleKey, std::allocator<YAML::Scanner::SimpleKey>>::_Deque_impl_data", ptr %_M_impl9, i32 0, i32 3
  %_M_cur = getelementptr inbounds %"struct.std::_Deque_iterator.14", ptr %_M_finish10, i32 0, i32 0
  store ptr %add.ptr8, ptr %_M_cur, align 8
  %call = call noundef nonnull align 1 dereferenceable(1) ptr @_ZNSt11_Deque_baseIN4YAML7Scanner9SimpleKeyESaIS2_EE19_M_get_Tp_allocatorEv(ptr noundef nonnull align 8 dereferenceable(80) %this1) #3
  %_M_impl11 = getelementptr inbounds %"class.std::_Deque_base.10", ptr %this1, i32 0, i32 0
  %_M_finish12 = getelementptr inbounds %"struct.std::_Deque_base<YAML::Scanner::SimpleKey, std::allocator<YAML::Scanner::SimpleKey>>::_Deque_impl_data", ptr %_M_impl11, i32 0, i32 3
  %_M_cur13 = getelementptr inbounds %"struct.std::_Deque_iterator.14", ptr %_M_finish12, i32 0, i32 0
  %3 = load ptr, ptr %_M_cur13, align 8
  call void @_ZNSt16allocator_traitsISaIN4YAML7Scanner9SimpleKeyEEE7destroyIS2_EEvRS3_PT_(ptr noundef nonnull align 1 dereferenceable(1) %call, ptr noundef %3) #3
  ret void
}

; Function Attrs: mustprogress nounwind uwtable
define linkonce_odr void @_ZNSt16allocator_traitsISaIN4YAML7Scanner9SimpleKeyEEE7destroyIS2_EEvRS3_PT_(ptr noundef nonnull align 1 dereferenceable(1) %__a, ptr noundef %__p) #4 comdat align 2 {
entry:
  %__a.addr = alloca ptr, align 8
  %__p.addr = alloca ptr, align 8
  store ptr %__a, ptr %__a.addr, align 8
  store ptr %__p, ptr %__p.addr, align 8
  %0 = load ptr, ptr %__a.addr, align 8
  %1 = load ptr, ptr %__p.addr, align 8
  call void @_ZNSt15__new_allocatorIN4YAML7Scanner9SimpleKeyEE7destroyIS2_EEvPT_(ptr noundef nonnull align 1 dereferenceable(1) %0, ptr noundef %1) #3
  ret void
}

; Function Attrs: mustprogress nounwind uwtable
define linkonce_odr noundef nonnull align 1 dereferenceable(1) ptr @_ZNSt11_Deque_baseIN4YAML7Scanner9SimpleKeyESaIS2_EE19_M_get_Tp_allocatorEv(ptr noundef nonnull align 8 dereferenceable(80) %this) #4 comdat align 2 {
entry:
  %this.addr = alloca ptr, align 8
  store ptr %this, ptr %this.addr, align 8
  %this1 = load ptr, ptr %this.addr, align 8
  %_M_impl = getelementptr inbounds %"class.std::_Deque_base.10", ptr %this1, i32 0, i32 0
  ret ptr %_M_impl
}

; Function Attrs: mustprogress nounwind uwtable
define linkonce_odr noundef zeroext i1 @_ZSteqRKSt15_Deque_iteratorIN4YAML7Scanner9SimpleKeyERS2_PS2_ES7_(ptr noundef nonnull align 8 dereferenceable(32) %__x, ptr noundef nonnull align 8 dereferenceable(32) %__y) #4 comdat {
entry:
  %__x.addr = alloca ptr, align 8
  %__y.addr = alloca ptr, align 8
  store ptr %__x, ptr %__x.addr, align 8
  store ptr %__y, ptr %__y.addr, align 8
  %0 = load ptr, ptr %__x.addr, align 8
  %_M_cur = getelementptr inbounds %"struct.std::_Deque_iterator.14", ptr %0, i32 0, i32 0
  %1 = load ptr, ptr %_M_cur, align 8
  %2 = load ptr, ptr %__y.addr, align 8
  %_M_cur1 = getelementptr inbounds %"struct.std::_Deque_iterator.14", ptr %2, i32 0, i32 0
  %3 = load ptr, ptr %_M_cur1, align 8
  %cmp = icmp eq ptr %1, %3
  ret i1 %cmp
}

; Function Attrs: mustprogress nounwind uwtable
define linkonce_odr void @_ZNSt5dequeIN4YAML7Scanner9SimpleKeyESaIS2_EE8pop_backEv(ptr noundef nonnull align 8 dereferenceable(80) %this) #4 comdat align 2 personality ptr @__gxx_personality_v0 {
entry:
  %this.addr = alloca ptr, align 8
  store ptr %this, ptr %this.addr, align 8
  %this1 = load ptr, ptr %this.addr, align 8
  %_M_impl = getelementptr inbounds %"class.std::_Deque_base.10", ptr %this1, i32 0, i32 0
  %_M_finish = getelementptr inbounds %"struct.std::_Deque_base<YAML::Scanner::SimpleKey, std::allocator<YAML::Scanner::SimpleKey>>::_Deque_impl_data", ptr %_M_impl, i32 0, i32 3
  %_M_cur = getelementptr inbounds %"struct.std::_Deque_iterator.14", ptr %_M_finish, i32 0, i32 0
  %0 = load ptr, ptr %_M_cur, align 8
  %_M_impl2 = getelementptr inbounds %"class.std::_Deque_base.10", ptr %this1, i32 0, i32 0
  %_M_finish3 = getelementptr inbounds %"struct.std::_Deque_base<YAML::Scanner::SimpleKey, std::allocator<YAML::Scanner::SimpleKey>>::_Deque_impl_data", ptr %_M_impl2, i32 0, i32 3
  %_M_first = getelementptr inbounds %"struct.std::_Deque_iterator.14", ptr %_M_finish3, i32 0, i32 1
  %1 = load ptr, ptr %_M_first, align 8
  %cmp = icmp ne ptr %0, %1
  br i1 %cmp, label %if.then, label %if.else

if.then:                                          ; preds = %entry
  %_M_impl4 = getelementptr inbounds %"class.std::_Deque_base.10", ptr %this1, i32 0, i32 0
  %_M_finish5 = getelementptr inbounds %"struct.std::_Deque_base<YAML::Scanner::SimpleKey, std::allocator<YAML::Scanner::SimpleKey>>::_Deque_impl_data", ptr %_M_impl4, i32 0, i32 3
  %_M_cur6 = getelementptr inbounds %"struct.std::_Deque_iterator.14", ptr %_M_finish5, i32 0, i32 0
  %2 = load ptr, ptr %_M_cur6, align 8
  %incdec.ptr = getelementptr inbounds %"struct.YAML::Scanner::SimpleKey", ptr %2, i32 -1
  store ptr %incdec.ptr, ptr %_M_cur6, align 8
  %call = call noundef nonnull align 1 dereferenceable(1) ptr @_ZNSt11_Deque_baseIN4YAML7Scanner9SimpleKeyESaIS2_EE19_M_get_Tp_allocatorEv(ptr noundef nonnull align 8 dereferenceable(80) %this1) #3
  %_M_impl7 = getelementptr inbounds %"class.std::_Deque_base.10", ptr %this1, i32 0, i32 0
  %_M_finish8 = getelementptr inbounds %"struct.std::_Deque_base<YAML::Scanner::SimpleKey, std::allocator<YAML::Scanner::SimpleKey>>::_Deque_impl_data", ptr %_M_impl7, i32 0, i32 3
  %_M_cur9 = getelementptr inbounds %"struct.std::_Deque_iterator.14", ptr %_M_finish8, i32 0, i32 0
  %3 = load ptr, ptr %_M_cur9, align 8
  call void @_ZNSt16allocator_traitsISaIN4YAML7Scanner9SimpleKeyEEE7destroyIS2_EEvRS3_PT_(ptr noundef nonnull align 1 dereferenceable(1) %call, ptr noundef %3) #3
  br label %if.end

if.else:                                          ; preds = %entry
  invoke void @_ZNSt5dequeIN4YAML7Scanner9SimpleKeyESaIS2_EE15_M_pop_back_auxEv(ptr noundef nonnull align 8 dereferenceable(80) %this1)
          to label %invoke.cont unwind label %terminate.lpad

invoke.cont:                                      ; preds = %if.else
  br label %if.end

if.end:                                           ; preds = %invoke.cont, %if.then
  ret void

terminate.lpad:                                   ; preds = %if.else
  %4 = landingpad { ptr, i32 }
          catch ptr null
  %5 = extractvalue { ptr, i32 } %4, 0
  call void @__clang_call_terminate(ptr %5) #12
  unreachable
}

; Function Attrs: mustprogress nounwind uwtable
define linkonce_odr noundef zeroext i1 @_ZNKSt5dequeIN4YAML7Scanner9SimpleKeyESaIS2_EE5emptyEv(ptr noundef nonnull align 8 dereferenceable(80) %this) #4 comdat align 2 {
entry:
  %this.addr = alloca ptr, align 8
  store ptr %this, ptr %this.addr, align 8
  %this1 = load ptr, ptr %this.addr, align 8
  %_M_impl = getelementptr inbounds %"class.std::_Deque_base.10", ptr %this1, i32 0, i32 0
  %_M_finish = getelementptr inbounds %"struct.std::_Deque_base<YAML::Scanner::SimpleKey, std::allocator<YAML::Scanner::SimpleKey>>::_Deque_impl_data", ptr %_M_impl, i32 0, i32 3
  %_M_impl2 = getelementptr inbounds %"class.std::_Deque_base.10", ptr %this1, i32 0, i32 0
  %_M_start = getelementptr inbounds %"struct.std::_Deque_base<YAML::Scanner::SimpleKey, std::allocator<YAML::Scanner::SimpleKey>>::_Deque_impl_data", ptr %_M_impl2, i32 0, i32 2
  %call = call noundef zeroext i1 @_ZSteqRKSt15_Deque_iteratorIN4YAML7Scanner9SimpleKeyERS2_PS2_ES7_(ptr noundef nonnull align 8 dereferenceable(32) %_M_finish, ptr noundef nonnull align 8 dereferenceable(32) %_M_start) #3
  ret i1 %call
}

; Function Attrs: mustprogress nounwind uwtable
define linkonce_odr void @_ZNSt5stackIN4YAML7Scanner9SimpleKeyESt5dequeIS2_SaIS2_EEE3popEv(ptr noundef nonnull align 8 dereferenceable(80) %this) #4 comdat align 2 {
entry:
  %this.addr = alloca ptr, align 8
  store ptr %this, ptr %this.addr, align 8
  %this1 = load ptr, ptr %this.addr, align 8
  %c = getelementptr inbounds %"class.std::stack", ptr %this1, i32 0, i32 0
  call void @_ZNSt5dequeIN4YAML7Scanner9SimpleKeyESaIS2_EE8pop_backEv(ptr noundef nonnull align 8 dereferenceable(80) %c) #3
  ret void
}

; Function Attrs: mustprogress nounwind uwtable
define linkonce_odr noundef zeroext i1 @_ZNKSt5stackIN4YAML7Scanner9SimpleKeyESt5dequeIS2_SaIS2_EEE5emptyEv(ptr noundef nonnull align 8 dereferenceable(80) %this) #4 comdat align 2 {
entry:
  %this.addr = alloca ptr, align 8
  store ptr %this, ptr %this.addr, align 8
  %this1 = load ptr, ptr %this.addr, align 8
  %c = getelementptr inbounds %"class.std::stack", ptr %this1, i32 0, i32 0
  %call = call noundef zeroext i1 @_ZNKSt5dequeIN4YAML7Scanner9SimpleKeyESaIS2_EE5emptyEv(ptr noundef nonnull align 8 dereferenceable(80) %c) #3
  ret i1 %call
}

; Function Attrs: mustprogress uwtable
define void @_ZN4YAML7Scanner16PopAllSimpleKeysEv(ptr noundef nonnull align 8 dereferenceable(480) %this) #6 align 2 {
entry:
  %this.addr = alloca ptr, align 8
  store ptr %this, ptr %this.addr, align 8
  %this1 = load ptr, ptr %this.addr, align 8
  br label %while.cond

while.cond:                                       ; preds = %while.body, %entry
  %m_simpleKeys = getelementptr inbounds %"class.YAML::Scanner", ptr %this1, i32 0, i32 6
  %call = call noundef zeroext i1 @_ZNKSt5stackIN4YAML7Scanner9SimpleKeyESt5dequeIS2_SaIS2_EEE5emptyEv(ptr noundef nonnull align 8 dereferenceable(80) %m_simpleKeys)
  %lnot = xor i1 %call, true
  br i1 %lnot, label %while.body, label %while.end

while.body:                                       ; preds = %while.cond
  %m_simpleKeys2 = getelementptr inbounds %"class.YAML::Scanner", ptr %this1, i32 0, i32 6
  call void @_ZNSt5stackIN4YAML7Scanner9SimpleKeyESt5dequeIS2_SaIS2_EEE3popEv(ptr noundef nonnull align 8 dereferenceable(80) %m_simpleKeys2)
  br label %while.cond, !llvm.loop !4

while.end:                                        ; preds = %while.cond
  ret void
}