; Function Attrs: mustprogress nounwind uwtable
define void @_ZN4YAML7Scanner16PopAllSimpleKeysEv(ptr noundef nonnull align 8 captures(none) dereferenceable(480) %this) local_unnamed_addr #9 align 2 personality ptr @__gxx_personality_v0 {
entry:
  %_M_finish.i.i = getelementptr inbounds nuw i8, ptr %this, i64 264
  %_M_start.i.i = getelementptr inbounds nuw i8, ptr %this, i64 232
  %0 = load ptr, ptr %_M_finish.i.i, align 8
  %1 = load ptr, ptr %_M_start.i.i, align 8
  %cmp.i.i.i2 = icmp eq ptr %0, %1
  br i1 %cmp.i.i.i2, label %while.end, label %while.body.lr.ph

while.body.lr.ph:                                 ; preds = %entry
  %_M_first.i.i = getelementptr inbounds nuw i8, ptr %this, i64 272
  %_M_node.i.i.i = getelementptr inbounds nuw i8, ptr %this, i64 288
  %_M_last.i.i.i.i = getelementptr inbounds nuw i8, ptr %this, i64 280
  %.pre = load ptr, ptr %_M_first.i.i, align 8
  br label %while.body

while.body:                                       ; preds = %while.body.lr.ph, %_ZNSt5stackIN4YAML7Scanner9SimpleKeyESt5dequeIS2_SaIS2_EEE3popEv.exit
  %2 = phi ptr [ %1, %while.body.lr.ph ], [ %7, %_ZNSt5stackIN4YAML7Scanner9SimpleKeyESt5dequeIS2_SaIS2_EEE3popEv.exit ]
  %3 = phi ptr [ %.pre, %while.body.lr.ph ], [ %8, %_ZNSt5stackIN4YAML7Scanner9SimpleKeyESt5dequeIS2_SaIS2_EEE3popEv.exit ]
  %4 = phi ptr [ %0, %while.body.lr.ph ], [ %storemerge.i.i, %_ZNSt5stackIN4YAML7Scanner9SimpleKeyESt5dequeIS2_SaIS2_EEE3popEv.exit ]
  %cmp.not.i.i = icmp eq ptr %4, %3
  br i1 %cmp.not.i.i, label %if.else.i.i, label %if.then.i.i

if.then.i.i:                                      ; preds = %while.body
  %incdec.ptr.i.i = getelementptr inbounds i8, ptr %4, i64 -48
  br label %_ZNSt5stackIN4YAML7Scanner9SimpleKeyESt5dequeIS2_SaIS2_EEE3popEv.exit

if.else.i.i:                                      ; preds = %while.body
  tail call void @_ZdlPv(ptr noundef %3) #18
  %5 = load ptr, ptr %_M_node.i.i.i, align 8
  %add.ptr.i.i.i = getelementptr inbounds i8, ptr %5, i64 -8
  store ptr %add.ptr.i.i.i, ptr %_M_node.i.i.i, align 8
  %6 = load ptr, ptr %add.ptr.i.i.i, align 8
  store ptr %6, ptr %_M_first.i.i, align 8
  %add.ptr.i.i.i.i = getelementptr inbounds nuw i8, ptr %6, i64 480
  store ptr %add.ptr.i.i.i.i, ptr %_M_last.i.i.i.i, align 8
  %add.ptr8.i.i.i = getelementptr inbounds nuw i8, ptr %6, i64 432
  %.pre3 = load ptr, ptr %_M_start.i.i, align 8
  br label %_ZNSt5stackIN4YAML7Scanner9SimpleKeyESt5dequeIS2_SaIS2_EEE3popEv.exit

_ZNSt5stackIN4YAML7Scanner9SimpleKeyESt5dequeIS2_SaIS2_EEE3popEv.exit: ; preds = %if.then.i.i, %if.else.i.i
  %7 = phi ptr [ %2, %if.then.i.i ], [ %.pre3, %if.else.i.i ]
  %8 = phi ptr [ %3, %if.then.i.i ], [ %6, %if.else.i.i ]
  %storemerge.i.i = phi ptr [ %incdec.ptr.i.i, %if.then.i.i ], [ %add.ptr8.i.i.i, %if.else.i.i ]
  store ptr %storemerge.i.i, ptr %_M_finish.i.i, align 8
  %cmp.i.i.i = icmp eq ptr %storemerge.i.i, %7
  br i1 %cmp.i.i.i, label %while.end, label %while.body, !llvm.loop !24

while.end:                                        ; preds = %_ZNSt5stackIN4YAML7Scanner9SimpleKeyESt5dequeIS2_SaIS2_EEE3popEv.exit, %entry
  ret void
}